target datalayout = "e-m:e-p270:32:32-p271:32:32-p272:64:64-i64:64-i128:128-f80:128-n8:16:32:64-S128"
target triple = "x86_64-unknown-linux-gnu"

%struct.signalfd_siginfo = type { i32, i32, i32, i32, i32, i32, i32, i32, i32, i32, i32, i32, i64, i64, i64, i64, i16, i16, i32, i64, i32, [28 x i8] }

; Function Attrs: nounwind sspstrong uwtable
define internal i64 @tswap64(i64 noundef %s) #0 {
entry:
  %s.addr = alloca i64, align 8
  store i64 %s, ptr %s.addr, align 8
  %0 = load i64, ptr %s.addr, align 8
  ret i64 %0
}

; Function Attrs: nounwind sspstrong uwtable
define internal i32 @tswap32(i32 noundef %s) #0 {
entry:
  %s.addr = alloca i32, align 4
  store i32 %s, ptr %s.addr, align 4
  %0 = load i32, ptr %s.addr, align 4
  ret i32 %0
}

; Function Attrs: nounwind sspstrong uwtable
define internal zeroext i16 @tswap16(i16 noundef zeroext %s) #0 {
entry:
  %s.addr = alloca i16, align 2
  store i16 %s, ptr %s.addr, align 2
  %0 = load i16, ptr %s.addr, align 2
  ret i16 %0
}

; Function Attrs: nounwind sspstrong uwtable
define internal void @host_to_target_signalfd_siginfo(ptr noundef %tinfo, ptr noundef %info) #0 {
entry:
  %tinfo.addr = alloca ptr, align 8
  %info.addr = alloca ptr, align 8
  %sig = alloca i32, align 4
  %ssi_addr_lsb = alloca ptr, align 8
  %tssi_addr_lsb = alloca ptr, align 8
  store ptr %tinfo, ptr %tinfo.addr, align 8
  store ptr %info, ptr %info.addr, align 8
  %0 = load ptr, ptr %info.addr, align 8
  %ssi_signo = getelementptr inbounds %struct.signalfd_siginfo, ptr %0, i32 0, i32 0
  %1 = load i32, ptr %ssi_signo, align 8
  %call = call i32 @host_to_target_signal(i32 noundef %1)
  store i32 %call, ptr %sig, align 4
  %2 = load ptr, ptr %tinfo.addr, align 8
  %ssi_signo1 = getelementptr inbounds %struct.signalfd_siginfo, ptr %2, i32 0, i32 0
  %3 = load i32, ptr %ssi_signo1, align 8
  %cmp = icmp eq i32 %3, 7
  br i1 %cmp, label %land.lhs.true, label %if.end

land.lhs.true:                                    ; preds = %entry
  %4 = load ptr, ptr %tinfo.addr, align 8
  %ssi_code = getelementptr inbounds %struct.signalfd_siginfo, ptr %4, i32 0, i32 2
  %5 = load i32, ptr %ssi_code, align 8
  %cmp2 = icmp eq i32 %5, 4
  br i1 %cmp2, label %if.then, label %lor.lhs.false

lor.lhs.false:                                    ; preds = %land.lhs.true
  %6 = load ptr, ptr %tinfo.addr, align 8
  %ssi_code3 = getelementptr inbounds %struct.signalfd_siginfo, ptr %6, i32 0, i32 2
  %7 = load i32, ptr %ssi_code3, align 8
  %cmp4 = icmp eq i32 %7, 5
  br i1 %cmp4, label %if.then, label %if.end

if.then:                                          ; preds = %lor.lhs.false, %land.lhs.true
  %8 = load ptr, ptr %info.addr, align 8
  %ssi_addr = getelementptr inbounds %struct.signalfd_siginfo, ptr %8, i32 0, i32 15
  %add.ptr = getelementptr i64, ptr %ssi_addr, i64 1
  store ptr %add.ptr, ptr %ssi_addr_lsb, align 8
  %9 = load ptr, ptr %tinfo.addr, align 8
  %ssi_addr5 = getelementptr inbounds %struct.signalfd_siginfo, ptr %9, i32 0, i32 15
  %add.ptr6 = getelementptr i64, ptr %ssi_addr5, i64 1
  store ptr %add.ptr6, ptr %tssi_addr_lsb, align 8
  %10 = load ptr, ptr %ssi_addr_lsb, align 8
  %11 = load i16, ptr %10, align 2
  %call7 = call zeroext i16 @tswap16(i16 noundef zeroext %11)
  %12 = load ptr, ptr %tssi_addr_lsb, align 8
  store i16 %call7, ptr %12, align 2
  br label %if.end

if.end:                                           ; preds = %if.then, %lor.lhs.false, %entry
  %13 = load i32, ptr %sig, align 4
  %call8 = call i32 @tswap32(i32 noundef %13)
  %14 = load ptr, ptr %tinfo.addr, align 8
  %ssi_signo9 = getelementptr inbounds %struct.signalfd_siginfo, ptr %14, i32 0, i32 0
  store i32 %call8, ptr %ssi_signo9, align 8
  %15 = load ptr, ptr %tinfo.addr, align 8
  %ssi_errno = getelementptr inbounds %struct.signalfd_siginfo, ptr %15, i32 0, i32 1
  %16 = load i32, ptr %ssi_errno, align 4
  %call10 = call i32 @tswap32(i32 noundef %16)
  %17 = load ptr, ptr %tinfo.addr, align 8
  %ssi_errno11 = getelementptr inbounds %struct.signalfd_siginfo, ptr %17, i32 0, i32 1
  store i32 %call10, ptr %ssi_errno11, align 4
  %18 = load ptr, ptr %info.addr, align 8
  %ssi_code12 = getelementptr inbounds %struct.signalfd_siginfo, ptr %18, i32 0, i32 2
  %19 = load i32, ptr %ssi_code12, align 8
  %call13 = call i32 @tswap32(i32 noundef %19)
  %20 = load ptr, ptr %tinfo.addr, align 8
  %ssi_code14 = getelementptr inbounds %struct.signalfd_siginfo, ptr %20, i32 0, i32 2
  store i32 %call13, ptr %ssi_code14, align 8
  %21 = load ptr, ptr %info.addr, align 8
  %ssi_pid = getelementptr inbounds %struct.signalfd_siginfo, ptr %21, i32 0, i32 3
  %22 = load i32, ptr %ssi_pid, align 4
  %call15 = call i32 @tswap32(i32 noundef %22)
  %23 = load ptr, ptr %tinfo.addr, align 8
  %ssi_pid16 = getelementptr inbounds %struct.signalfd_siginfo, ptr %23, i32 0, i32 3
  store i32 %call15, ptr %ssi_pid16, align 4
  %24 = load ptr, ptr %info.addr, align 8
  %ssi_uid = getelementptr inbounds %struct.signalfd_siginfo, ptr %24, i32 0, i32 4
  %25 = load i32, ptr %ssi_uid, align 8
  %call17 = call i32 @tswap32(i32 noundef %25)
  %26 = load ptr, ptr %tinfo.addr, align 8
  %ssi_uid18 = getelementptr inbounds %struct.signalfd_siginfo, ptr %26, i32 0, i32 4
  store i32 %call17, ptr %ssi_uid18, align 8
  %27 = load ptr, ptr %info.addr, align 8
  %ssi_fd = getelementptr inbounds %struct.signalfd_siginfo, ptr %27, i32 0, i32 5
  %28 = load i32, ptr %ssi_fd, align 4
  %call19 = call i32 @tswap32(i32 noundef %28)
  %29 = load ptr, ptr %tinfo.addr, align 8
  %ssi_fd20 = getelementptr inbounds %struct.signalfd_siginfo, ptr %29, i32 0, i32 5
  store i32 %call19, ptr %ssi_fd20, align 4
  %30 = load ptr, ptr %info.addr, align 8
  %ssi_tid = getelementptr inbounds %struct.signalfd_siginfo, ptr %30, i32 0, i32 6
  %31 = load i32, ptr %ssi_tid, align 8
  %call21 = call i32 @tswap32(i32 noundef %31)
  %32 = load ptr, ptr %tinfo.addr, align 8
  %ssi_tid22 = getelementptr inbounds %struct.signalfd_siginfo, ptr %32, i32 0, i32 6
  store i32 %call21, ptr %ssi_tid22, align 8
  %33 = load ptr, ptr %info.addr, align 8
  %ssi_band = getelementptr inbounds %struct.signalfd_siginfo, ptr %33, i32 0, i32 7
  %34 = load i32, ptr %ssi_band, align 4
  %call23 = call i32 @tswap32(i32 noundef %34)
  %35 = load ptr, ptr %tinfo.addr, align 8
  %ssi_band24 = getelementptr inbounds %struct.signalfd_siginfo, ptr %35, i32 0, i32 7
  store i32 %call23, ptr %ssi_band24, align 4
  %36 = load ptr, ptr %info.addr, align 8
  %ssi_overrun = getelementptr inbounds %struct.signalfd_siginfo, ptr %36, i32 0, i32 8
  %37 = load i32, ptr %ssi_overrun, align 8
  %call25 = call i32 @tswap32(i32 noundef %37)
  %38 = load ptr, ptr %tinfo.addr, align 8
  %ssi_overrun26 = getelementptr inbounds %struct.signalfd_siginfo, ptr %38, i32 0, i32 8
  store i32 %call25, ptr %ssi_overrun26, align 8
  %39 = load ptr, ptr %info.addr, align 8
  %ssi_trapno = getelementptr inbounds %struct.signalfd_siginfo, ptr %39, i32 0, i32 9
  %40 = load i32, ptr %ssi_trapno, align 4
  %call27 = call i32 @tswap32(i32 noundef %40)
  %41 = load ptr, ptr %tinfo.addr, align 8
  %ssi_trapno28 = getelementptr inbounds %struct.signalfd_siginfo, ptr %41, i32 0, i32 9
  store i32 %call27, ptr %ssi_trapno28, align 4
  %42 = load ptr, ptr %info.addr, align 8
  %ssi_status = getelementptr inbounds %struct.signalfd_siginfo, ptr %42, i32 0, i32 10
  %43 = load i32, ptr %ssi_status, align 8
  %call29 = call i32 @tswap32(i32 noundef %43)
  %44 = load ptr, ptr %tinfo.addr, align 8
  %ssi_status30 = getelementptr inbounds %struct.signalfd_siginfo, ptr %44, i32 0, i32 10
  store i32 %call29, ptr %ssi_status30, align 8
  %45 = load ptr, ptr %info.addr, align 8
  %ssi_int = getelementptr inbounds %struct.signalfd_siginfo, ptr %45, i32 0, i32 11
  %46 = load i32, ptr %ssi_int, align 4
  %call31 = call i32 @tswap32(i32 noundef %46)
  %47 = load ptr, ptr %tinfo.addr, align 8
  %ssi_int32 = getelementptr inbounds %struct.signalfd_siginfo, ptr %47, i32 0, i32 11
  store i32 %call31, ptr %ssi_int32, align 4
  %48 = load ptr, ptr %info.addr, align 8
  %ssi_ptr = getelementptr inbounds %struct.signalfd_siginfo, ptr %48, i32 0, i32 12
  %49 = load i64, ptr %ssi_ptr, align 8
  %call33 = call i64 @tswap64(i64 noundef %49)
  %50 = load ptr, ptr %tinfo.addr, align 8
  %ssi_ptr34 = getelementptr inbounds %struct.signalfd_siginfo, ptr %50, i32 0, i32 12
  store i64 %call33, ptr %ssi_ptr34, align 8
  %51 = load ptr, ptr %info.addr, align 8
  %ssi_utime = getelementptr inbounds %struct.signalfd_siginfo, ptr %51, i32 0, i32 13
  %52 = load i64, ptr %ssi_utime, align 8
  %call35 = call i64 @tswap64(i64 noundef %52)
  %53 = load ptr, ptr %tinfo.addr, align 8
  %ssi_utime36 = getelementptr inbounds %struct.signalfd_siginfo, ptr %53, i32 0, i32 13
  store i64 %call35, ptr %ssi_utime36, align 8
  %54 = load ptr, ptr %info.addr, align 8
  %ssi_stime = getelementptr inbounds %struct.signalfd_siginfo, ptr %54, i32 0, i32 14
  %55 = load i64, ptr %ssi_stime, align 8
  %call37 = call i64 @tswap64(i64 noundef %55)
  %56 = load ptr, ptr %tinfo.addr, align 8
  %ssi_stime38 = getelementptr inbounds %struct.signalfd_siginfo, ptr %56, i32 0, i32 14
  store i64 %call37, ptr %ssi_stime38, align 8
  %57 = load ptr, ptr %info.addr, align 8
  %ssi_addr39 = getelementptr inbounds %struct.signalfd_siginfo, ptr %57, i32 0, i32 15
  %58 = load i64, ptr %ssi_addr39, align 8
  %call40 = call i64 @tswap64(i64 noundef %58)
  %59 = load ptr, ptr %tinfo.addr, align 8
  %ssi_addr41 = getelementptr inbounds %struct.signalfd_siginfo, ptr %59, i32 0, i32 15
  store i64 %call40, ptr %ssi_addr41, align 8
  ret void
}

; Function Attrs: nounwind sspstrong uwtable
define internal i64 @host_to_target_data_signalfd(ptr noundef %buf, i64 noundef %len) #0 {
entry:
  %buf.addr = alloca ptr, align 8
  %len.addr = alloca i64, align 8
  %i = alloca i32, align 4
  store ptr %buf, ptr %buf.addr, align 8
  store i64 %len, ptr %len.addr, align 8
  store i32 0, ptr %i, align 4
  br label %for.cond

for.cond:                                         ; preds = %for.inc, %entry
  %0 = load i32, ptr %i, align 4
  %conv = sext i32 %0 to i64
  %1 = load i64, ptr %len.addr, align 8
  %cmp = icmp ult i64 %conv, %1
  br i1 %cmp, label %for.body, label %for.end

for.body:                                         ; preds = %for.cond
  %2 = load ptr, ptr %buf.addr, align 8
  %3 = load i32, ptr %i, align 4
  %idx.ext = sext i32 %3 to i64
  %add.ptr = getelementptr i8, ptr %2, i64 %idx.ext
  %4 = load ptr, ptr %buf.addr, align 8
  %5 = load i32, ptr %i, align 4
  %idx.ext2 = sext i32 %5 to i64
  %add.ptr3 = getelementptr i8, ptr %4, i64 %idx.ext2
  call void @host_to_target_signalfd_siginfo(ptr noundef %add.ptr, ptr noundef %add.ptr3)
  br label %for.inc

for.inc:                                          ; preds = %for.body
  %6 = load i32, ptr %i, align 4
  %conv4 = sext i32 %6 to i64
  %add = add i64 %conv4, 128
  %conv5 = trunc i64 %add to i32
  store i32 %conv5, ptr %i, align 4
  br label %for.cond, !llvm.loop !5

for.end:                                          ; preds = %for.cond
  %7 = load i64, ptr %len.addr, align 8
  ret i64 %7
}