; Function Attrs: nounwind sspstrong uwtable
define internal noundef i64 @host_to_target_data_signalfd(ptr noundef captures(none) %buf, i64 noundef returned %len) #0 {
entry:
  %cmp6.not = icmp eq i64 %len, 0
  br i1 %cmp6.not, label %for.end, label %for.body

for.body:                                         ; preds = %entry, %for.body
  %conv7 = phi i64 [ %conv, %for.body ], [ 0, %entry ]
  %add.ptr = getelementptr i8, ptr %buf, i64 %conv7
  %0 = load i32, ptr %add.ptr, align 8
  %call.i = tail call i32 @host_to_target_signal(i32 noundef %0) #5
  store i32 %call.i, ptr %add.ptr, align 8
  %add = shl nsw i64 %conv7, 32
  %sext = add i64 %add, 549755813888
  %conv = ashr exact i64 %sext, 32
  %cmp = icmp ult i64 %conv, %len
  br i1 %cmp, label %for.body, label %for.end, !llvm.loop !12

for.end:                                          ; preds = %for.body, %entry
  ret i64 %len
}